target datalayout = "e-m:e-p270:32:32-p271:32:32-p272:64:64-i64:64-i128:128-f80:128-n8:16:32:64-S128"
target triple = "x86_64-pc-linux-gnu"

; Function Attrs: mustprogress nounwind uwtable
define noundef i32 @_Z11sget4_ordersPh(i16 noundef signext %0, ptr noundef %1) #7 {
  %3 = alloca i16, align 2
  %4 = alloca ptr, align 8
  %5 = alloca i32, align 4
  store i16 %0, ptr %3, align 2, !tbaa !15
  store ptr %1, ptr %4, align 8, !tbaa !11
  call void @llvm.lifetime.start.p0(i64 4, ptr %5) #8
  %6 = load i16, ptr %3, align 2, !tbaa !15
  %7 = sext i16 %6 to i32
  %8 = icmp eq i32 %7, 18761
  br i1 %8, label %9, label %32

9:                                                ; preds = %2
  %10 = load ptr, ptr %4, align 8, !tbaa !11
  %11 = getelementptr inbounds i8, ptr %10, i64 0
  %12 = load i8, ptr %11, align 1, !tbaa !76
  %13 = zext i8 %12 to i32
  %14 = load ptr, ptr %4, align 8, !tbaa !11
  %15 = getelementptr inbounds i8, ptr %14, i64 1
  %16 = load i8, ptr %15, align 1, !tbaa !76
  %17 = zext i8 %16 to i32
  %18 = shl i32 %17, 8
  %19 = or i32 %13, %18
  %20 = load ptr, ptr %4, align 8, !tbaa !11
  %21 = getelementptr inbounds i8, ptr %20, i64 2
  %22 = load i8, ptr %21, align 1, !tbaa !76
  %23 = zext i8 %22 to i32
  %24 = shl i32 %23, 16
  %25 = or i32 %19, %24
  %26 = load ptr, ptr %4, align 8, !tbaa !11
  %27 = getelementptr inbounds i8, ptr %26, i64 3
  %28 = load i8, ptr %27, align 1, !tbaa !76
  %29 = zext i8 %28 to i32
  %30 = shl i32 %29, 24
  %31 = or i32 %25, %30
  store i32 %31, ptr %5, align 4, !tbaa !13
  br label %55

32:                                               ; preds = %2
  %33 = load ptr, ptr %4, align 8, !tbaa !11
  %34 = getelementptr inbounds i8, ptr %33, i64 0
  %35 = load i8, ptr %34, align 1, !tbaa !76
  %36 = zext i8 %35 to i32
  %37 = shl i32 %36, 24
  %38 = load ptr, ptr %4, align 8, !tbaa !11
  %39 = getelementptr inbounds i8, ptr %38, i64 1
  %40 = load i8, ptr %39, align 1, !tbaa !76
  %41 = zext i8 %40 to i32
  %42 = shl i32 %41, 16
  %43 = or i32 %37, %42
  %44 = load ptr, ptr %4, align 8, !tbaa !11
  %45 = getelementptr inbounds i8, ptr %44, i64 2
  %46 = load i8, ptr %45, align 1, !tbaa !76
  %47 = zext i8 %46 to i32
  %48 = shl i32 %47, 8
  %49 = or i32 %43, %48
  %50 = load ptr, ptr %4, align 8, !tbaa !11
  %51 = getelementptr inbounds i8, ptr %50, i64 3
  %52 = load i8, ptr %51, align 1, !tbaa !76
  %53 = zext i8 %52 to i32
  %54 = or i32 %49, %53
  store i32 %54, ptr %5, align 4, !tbaa !13
  br label %55

55:                                               ; preds = %32, %9
  %56 = load i32, ptr %5, align 4, !tbaa !13
  call void @llvm.lifetime.end.p0(i64 4, ptr %5) #8
  ret i32 %56
}

; Function Attrs: mustprogress nounwind uwtable
define noundef double @_Z13sget_fixed32usPh(i16 noundef signext %0, ptr noundef %1) #7 {
  %3 = alloca i16, align 2
  %4 = alloca ptr, align 8
  %5 = alloca i32, align 4
  store i16 %0, ptr %3, align 2, !tbaa !15
  store ptr %1, ptr %4, align 8, !tbaa !11
  call void @llvm.lifetime.start.p0(i64 4, ptr %5) #8
  %6 = load i16, ptr %3, align 2, !tbaa !15
  %7 = load ptr, ptr %4, align 8, !tbaa !11
  %8 = call noundef i32 @_Z11sget4_ordersPh(i16 noundef signext %6, ptr noundef %7)
  store i32 %8, ptr %5, align 4, !tbaa !13
  %9 = load i32, ptr %5, align 4, !tbaa !13
  %10 = uitofp i32 %9 to double
  %11 = fdiv reassoc nsz arcp contract afn double %10, 6.553600e+00
  %12 = fadd reassoc nsz arcp contract afn double %11, 5.000000e-01
  %13 = fdiv reassoc nsz arcp contract afn double %12, 1.000000e+04
  call void @llvm.lifetime.end.p0(i64 4, ptr %5) #8
  ret double %13
}

; Function Attrs: mustprogress nounwind uwtable
define noundef double @_Z17AngleConversion_asPh(i16 noundef signext %0, ptr noundef %1) #7 {
  %3 = alloca double, align 8
  %4 = alloca i16, align 2
  %5 = alloca ptr, align 8
  %6 = alloca double, align 8
  %7 = alloca i32, align 4
  store i16 %0, ptr %4, align 2, !tbaa !15
  store ptr %1, ptr %5, align 8, !tbaa !11
  call void @llvm.lifetime.start.p0(i64 8, ptr %6) #8
  %8 = load i16, ptr %4, align 2, !tbaa !15
  %9 = load ptr, ptr %5, align 8, !tbaa !11
  %10 = call reassoc nsz arcp contract afn noundef double @_Z13sget_fixed32usPh(i16 noundef signext %8, ptr noundef %9)
  store double %10, ptr %6, align 8, !tbaa !123
  %11 = load double, ptr %6, align 8, !tbaa !123
  %12 = fcmp reassoc nsz arcp contract afn olt double %11, 1.800000e+02
  br i1 %12, label %13, label %16

13:                                               ; preds = %2
  %14 = load double, ptr %6, align 8, !tbaa !123
  %15 = fneg reassoc nsz arcp contract afn double %14
  store double %15, ptr %3, align 8
  store i32 1, ptr %7, align 4
  br label %19

16:                                               ; preds = %2
  %17 = load double, ptr %6, align 8, !tbaa !123
  %18 = fsub reassoc nsz arcp contract afn double 3.600000e+02, %17
  store double %18, ptr %3, align 8
  store i32 1, ptr %7, align 4
  br label %19

19:                                               ; preds = %16, %13
  call void @llvm.lifetime.end.p0(i64 8, ptr %6) #8
  %20 = load double, ptr %3, align 8
  ret double %20
}